target datalayout = "e-m:e-p270:32:32-p271:32:32-p272:64:64-i64:64-i128:128-f80:128-n8:16:32:64-S128"
target triple = "x86_64-pc-linux-gnu"

; Function Attrs: mustprogress uwtable
define void @_ZN7Imf_3_413saveFlatImageERKNSt7__cxx1112basic_stringIcSt11char_traitsIcESaIcEEERKNS_6HeaderERKNS_9FlatImageENS_16DataWindowSourceE(ptr noundef nonnull align 8 dereferenceable(32) %0, ptr noundef nonnull align 8 dereferenceable(49) %1, ptr noundef nonnull align 8 dereferenceable(104) %2, i32 noundef %3) #4 {
  %5 = alloca ptr, align 8
  %6 = alloca ptr, align 8
  %7 = alloca ptr, align 8
  %8 = alloca i32, align 4
  store ptr %0, ptr %5, align 8, !tbaa !3
  store ptr %1, ptr %6, align 8, !tbaa !8
  store ptr %2, ptr %7, align 8, !tbaa !10
  store i32 %3, ptr %8, align 4, !tbaa !12
  %9 = load ptr, ptr %7, align 8, !tbaa !10
  %10 = call noundef i32 @_ZNK7Imf_3_45Image9levelModeEv(ptr noundef nonnull align 8 dereferenceable(104) %9)
  %11 = icmp ne i32 %10, 0
  br i1 %11, label %15, label %12

12:                                               ; preds = %4
  %13 = load ptr, ptr %6, align 8, !tbaa !8
  %14 = call noundef zeroext i1 @_ZNK7Imf_3_46Header18hasTileDescriptionEv(ptr noundef nonnull align 8 dereferenceable(49) %13)
  br i1 %14, label %15, label %20

15:                                               ; preds = %12, %4
  %16 = load ptr, ptr %5, align 8, !tbaa !3
  %17 = load ptr, ptr %6, align 8, !tbaa !8
  %18 = load ptr, ptr %7, align 8, !tbaa !10
  %19 = load i32, ptr %8, align 4, !tbaa !12
  call void @_ZN7Imf_3_418saveFlatTiledImageERKNSt7__cxx1112basic_stringIcSt11char_traitsIcESaIcEEERKNS_6HeaderERKNS_9FlatImageENS_16DataWindowSourceE(ptr noundef nonnull align 8 dereferenceable(32) %16, ptr noundef nonnull align 8 dereferenceable(49) %17, ptr noundef nonnull align 8 dereferenceable(104) %18, i32 noundef %19)
  br label %25

20:                                               ; preds = %12
  %21 = load ptr, ptr %5, align 8, !tbaa !3
  %22 = load ptr, ptr %6, align 8, !tbaa !8
  %23 = load ptr, ptr %7, align 8, !tbaa !10
  %24 = load i32, ptr %8, align 4, !tbaa !12
  call void @_ZN7Imf_3_421saveFlatScanLineImageERKNSt7__cxx1112basic_stringIcSt11char_traitsIcESaIcEEERKNS_6HeaderERKNS_9FlatImageENS_16DataWindowSourceE(ptr noundef nonnull align 8 dereferenceable(32) %21, ptr noundef nonnull align 8 dereferenceable(49) %22, ptr noundef nonnull align 8 dereferenceable(104) %23, i32 noundef %24)
  br label %25

25:                                               ; preds = %20, %15
  ret void
}